target datalayout = "e-m:e-p270:32:32-p271:32:32-p272:64:64-i64:64-i128:128-f80:128-n8:16:32:64-S128"
target triple = "x86_64-pc-linux-gnu"

%"class.cv::ocl::Context" = type { ptr }

@__dso_handle = external hidden global i8
@_ZZN2cv3ocl7Context10getDefaultEbE5dummy = internal global %"class.cv::ocl::Context" zeroinitializer, align 8
@_ZGVZN2cv3ocl7Context10getDefaultEbE5dummy = internal global i64 0, align 8
@_ZN2cv3ocl7ContextC1Ev = unnamed_addr alias void (ptr), ptr @_ZN2cv3ocl7ContextC2Ev
@_ZN2cv3ocl7ContextD1Ev = unnamed_addr alias void (ptr), ptr @_ZN2cv3ocl7ContextD2Ev

; Function Attrs: mustprogress nounwind uwtable
define noundef nonnull align 8 dereferenceable(8) ptr @_ZN2cv3ocl7Context10getDefaultEb(i1 noundef zeroext %0) #0 align 2 {
  %2 = alloca i8, align 1
  %3 = zext i1 %0 to i8
  store i8 %3, ptr %2, align 1, !tbaa !3
  %4 = load atomic i8, ptr @_ZGVZN2cv3ocl7Context10getDefaultEbE5dummy acquire, align 8
  %5 = icmp eq i8 %4, 0
  br i1 %5, label %6, label %11, !prof !18

6:                                                ; preds = %1
  %7 = call i32 @__cxa_guard_acquire(ptr @_ZGVZN2cv3ocl7Context10getDefaultEbE5dummy) #3
  %8 = icmp ne i32 %7, 0
  br i1 %8, label %9, label %11

9:                                                ; preds = %6
  call void @_ZN2cv3ocl7ContextC1Ev(ptr noundef nonnull align 8 dereferenceable(8) @_ZZN2cv3ocl7Context10getDefaultEbE5dummy) #3
  %10 = call i32 @__cxa_atexit(ptr @_ZN2cv3ocl7ContextD1Ev, ptr @_ZZN2cv3ocl7Context10getDefaultEbE5dummy, ptr @__dso_handle) #3
  call void @__cxa_guard_release(ptr @_ZGVZN2cv3ocl7Context10getDefaultEbE5dummy) #3
  br label %11

11:                                               ; preds = %9, %6, %1
  ret ptr @_ZZN2cv3ocl7Context10getDefaultEbE5dummy
}