; Function Attrs: mustprogress nounwind uwtable
define noundef nonnull align 8 dereferenceable(8) ptr @_ZN2cv3ocl7Context10getDefaultEb(i1 noundef zeroext %0) local_unnamed_addr #3 align 2 {
  %2 = load atomic i8, ptr @_ZGVZN2cv3ocl7Context10getDefaultEbE5dummy acquire, align 8
  %3 = icmp eq i8 %2, 0
  br i1 %3, label %4, label %8, !prof !18

4:                                                ; preds = %1
  %5 = tail call i32 @__cxa_guard_acquire(ptr nonnull @_ZGVZN2cv3ocl7Context10getDefaultEbE5dummy) #15
  %.not = icmp eq i32 %5, 0
  br i1 %.not, label %8, label %6

6:                                                ; preds = %4
  tail call void @_ZN2cv3ocl7ContextC1Ev(ptr noundef nonnull align 8 dereferenceable(8) @_ZZN2cv3ocl7Context10getDefaultEbE5dummy) #15
  %7 = tail call i32 @__cxa_atexit(ptr nonnull @_ZN2cv3ocl7ContextD1Ev, ptr nonnull @_ZZN2cv3ocl7Context10getDefaultEbE5dummy, ptr nonnull @__dso_handle) #15
  tail call void @__cxa_guard_release(ptr nonnull @_ZGVZN2cv3ocl7Context10getDefaultEbE5dummy) #15
  br label %8

8:                                                ; preds = %6, %4, %1
  ret ptr @_ZZN2cv3ocl7Context10getDefaultEbE5dummy
}